target datalayout = "e-m:e-p270:32:32-p271:32:32-p272:64:64-i64:64-i128:128-f80:128-n8:16:32:64-S128"
target triple = "x86_64-pc-linux-gnu"

%"class.nanogui::Texture" = type { %"class.nanogui::Object.base", i8, i8, i8, i8, i8, i8, i8, %"struct.nanogui::Array", i8, i32, i32 }
%"class.nanogui::Object.base" = type <{ ptr, %"struct.std::atomic" }>
%"struct.std::atomic" = type { %"struct.std::__atomic_base" }
%"struct.std::__atomic_base" = type { i32 }
%"struct.nanogui::Array" = type { [2 x i32] }

@.str = private unnamed_addr constant [48 x i8] c"Texture::Texture(): invalid interpolation mode!\00", align 1
@_ZTISt13runtime_error = external constant ptr
@.str.1 = private unnamed_addr constant [39 x i8] c"Texture::Texture(): invalid wrap mode!\00", align 1
@.str.2 = private unnamed_addr constant [81 x i8] c"Texture::Texture(): flags must either specify ShaderRead, RenderTarget, or both!\00", align 1

; Function Attrs: mustprogress nounwind uwtable
define linkonce_odr hidden noundef nonnull align 4 dereferenceable(4) ptr @_ZN7nanogui5ArrayIiLm2EE1yILm2ETnNSt9enable_ifIXgeT_Li2EEiE4typeELi0EEERiv(ptr noundef nonnull align 4 dereferenceable(8) %0) #3 comdat align 2 {
  %2 = alloca ptr, align 8
  store ptr %0, ptr %2, align 8
  %3 = load ptr, ptr %2, align 8
  %4 = getelementptr inbounds %"struct.nanogui::Array", ptr %3, i32 0, i32 0
  %5 = getelementptr inbounds [2 x i32], ptr %4, i64 0, i64 1
  ret ptr %5
}

; Function Attrs: mustprogress nounwind uwtable
define linkonce_odr hidden noundef nonnull align 4 dereferenceable(4) ptr @_ZN7nanogui5ArrayIiLm2EE1xILm2ETnNSt9enable_ifIXgeT_Li1EEiE4typeELi0EEERiv(ptr noundef nonnull align 4 dereferenceable(8) %0) #3 comdat align 2 {
  %2 = alloca ptr, align 8
  store ptr %0, ptr %2, align 8
  %3 = load ptr, ptr %2, align 8
  %4 = getelementptr inbounds %"struct.nanogui::Array", ptr %3, i32 0, i32 0
  %5 = getelementptr inbounds [2 x i32], ptr %4, i64 0, i64 0
  ret ptr %5
}

; Function Attrs: mustprogress uwtable
define hidden void @_ZN7nanogui7Texture4initEv(ptr noundef nonnull align 8 dereferenceable(40) %0) #0 align 2 personality ptr @__gxx_personality_v0 {
  %2 = alloca ptr, align 8
  %3 = alloca [2 x i32], align 4
  %4 = alloca i32, align 4
  %5 = alloca ptr, align 8
  %6 = alloca i32, align 4
  %7 = alloca i32, align 4
  %8 = alloca i32, align 4
  %9 = alloca i32, align 4
  %10 = alloca i32, align 4
  %11 = alloca i32, align 4
  store ptr %0, ptr %2, align 8
  %12 = load ptr, ptr %2, align 8
  store i32 0, ptr %4, align 4
  br label %13

13:                                               ; preds = %47, %1
  %14 = load i32, ptr %4, align 4
  %15 = icmp slt i32 %14, 2
  br i1 %15, label %16, label %50

16:                                               ; preds = %13
  %17 = load i32, ptr %4, align 4
  %18 = icmp eq i32 %17, 0
  br i1 %18, label %19, label %22

19:                                               ; preds = %16
  %20 = getelementptr inbounds %"class.nanogui::Texture", ptr %12, i32 0, i32 3
  %21 = load i8, ptr %20, align 2
  br label %25

22:                                               ; preds = %16
  %23 = getelementptr inbounds %"class.nanogui::Texture", ptr %12, i32 0, i32 4
  %24 = load i8, ptr %23, align 1
  br label %25

25:                                               ; preds = %22, %19
  %26 = phi i8 [ %21, %19 ], [ %24, %22 ]
  switch i8 %26, label %39 [
    i8 0, label %27
    i8 1, label %31
    i8 2, label %35
  ]

27:                                               ; preds = %25
  %28 = load i32, ptr %4, align 4
  %29 = sext i32 %28 to i64
  %30 = getelementptr inbounds [2 x i32], ptr %3, i64 0, i64 %29
  store i32 9728, ptr %30, align 4
  br label %46

31:                                               ; preds = %25
  %32 = load i32, ptr %4, align 4
  %33 = sext i32 %32 to i64
  %34 = getelementptr inbounds [2 x i32], ptr %3, i64 0, i64 %33
  store i32 9729, ptr %34, align 4
  br label %46

35:                                               ; preds = %25
  %36 = load i32, ptr %4, align 4
  %37 = sext i32 %36 to i64
  %38 = getelementptr inbounds [2 x i32], ptr %3, i64 0, i64 %37
  store i32 9987, ptr %38, align 4
  br label %46

39:                                               ; preds = %25
  %40 = call ptr @__cxa_allocate_exception(i64 16) #8
  invoke void @_ZNSt13runtime_errorC1EPKc(ptr noundef nonnull align 8 dereferenceable(16) %40, ptr noundef @.str)
          to label %41 unwind label %42

41:                                               ; preds = %39
  call void @__cxa_throw(ptr %40, ptr @_ZTISt13runtime_error, ptr @_ZNSt13runtime_errorD1Ev) #9
  unreachable

42:                                               ; preds = %39
  %43 = landingpad { ptr, i32 }
          cleanup
  %44 = extractvalue { ptr, i32 } %43, 0
  store ptr %44, ptr %5, align 8
  %45 = extractvalue { ptr, i32 } %43, 1
  store i32 %45, ptr %6, align 4
  call void @__cxa_free_exception(ptr %40) #8
  br label %141

46:                                               ; preds = %35, %31, %27
  br label %47

47:                                               ; preds = %46
  %48 = load i32, ptr %4, align 4
  %49 = add nsw i32 %48, 1
  store i32 %49, ptr %4, align 4
  br label %13, !llvm.loop !5

50:                                               ; preds = %13
  store i32 0, ptr %7, align 4
  %51 = getelementptr inbounds %"class.nanogui::Texture", ptr %12, i32 0, i32 5
  %52 = load i8, ptr %51, align 8
  switch i8 %52, label %56 [
    i8 1, label %53
    i8 0, label %54
    i8 2, label %55
  ]

53:                                               ; preds = %50
  store i32 10497, ptr %7, align 4
  br label %63

54:                                               ; preds = %50
  store i32 33071, ptr %7, align 4
  br label %63

55:                                               ; preds = %50
  store i32 33648, ptr %7, align 4
  br label %63

56:                                               ; preds = %50
  %57 = call ptr @__cxa_allocate_exception(i64 16) #8
  invoke void @_ZNSt13runtime_errorC1EPKc(ptr noundef nonnull align 8 dereferenceable(16) %57, ptr noundef @.str.1)
          to label %58 unwind label %59

58:                                               ; preds = %56
  call void @__cxa_throw(ptr %57, ptr @_ZTISt13runtime_error, ptr @_ZNSt13runtime_errorD1Ev) #9
  unreachable

59:                                               ; preds = %56
  %60 = landingpad { ptr, i32 }
          cleanup
  %61 = extractvalue { ptr, i32 } %60, 0
  store ptr %61, ptr %5, align 8
  %62 = extractvalue { ptr, i32 } %60, 1
  store i32 %62, ptr %6, align 4
  call void @__cxa_free_exception(ptr %57) #8
  br label %141

63:                                               ; preds = %55, %54, %53
  %64 = getelementptr inbounds %"class.nanogui::Texture", ptr %12, i32 0, i32 1
  %65 = getelementptr inbounds %"class.nanogui::Texture", ptr %12, i32 0, i32 2
  call void @_ZN7nanoguiL21gl_map_texture_formatERNS_7Texture11PixelFormatERNS0_15ComponentFormatERjS5_S5_(ptr noundef nonnull align 1 dereferenceable(1) %64, ptr noundef nonnull align 1 dereferenceable(1) %65, ptr noundef nonnull align 4 dereferenceable(4) %8, ptr noundef nonnull align 4 dereferenceable(4) %9, ptr noundef nonnull align 4 dereferenceable(4) %10)
  %66 = getelementptr inbounds %"class.nanogui::Texture", ptr %12, i32 0, i32 6
  %67 = load i8, ptr %66, align 1
  %68 = zext i8 %67 to i32
  %69 = icmp sgt i32 %68, 1
  %70 = select i1 %69, i32 37120, i32 3553
  store i32 %70, ptr %11, align 4
  %71 = getelementptr inbounds %"class.nanogui::Texture", ptr %12, i32 0, i32 7
  %72 = load i8, ptr %71, align 2
  %73 = zext i8 %72 to i32
  %74 = and i32 %73, 1
  %75 = icmp ne i32 %74, 0
  br i1 %75, label %76, label %98

76:                                               ; preds = %63
  %77 = getelementptr inbounds %"class.nanogui::Texture", ptr %12, i32 0, i32 10
  call void @glGenTextures(i32 noundef 1, ptr noundef %77)
  %78 = load i32, ptr %11, align 4
  %79 = getelementptr inbounds %"class.nanogui::Texture", ptr %12, i32 0, i32 10
  %80 = load i32, ptr %79, align 8
  call void @glBindTexture(i32 noundef %78, i32 noundef %80)
  %81 = load i32, ptr %11, align 4
  %82 = getelementptr inbounds [2 x i32], ptr %3, i64 0, i64 0
  %83 = load i32, ptr %82, align 4
  call void @glTexParameteri(i32 noundef %81, i32 noundef 10241, i32 noundef %83)
  %84 = load i32, ptr %11, align 4
  %85 = getelementptr inbounds [2 x i32], ptr %3, i64 0, i64 1
  %86 = load i32, ptr %85, align 4
  call void @glTexParameteri(i32 noundef %84, i32 noundef 10240, i32 noundef %86)
  %87 = load i32, ptr %11, align 4
  %88 = load i32, ptr %7, align 4
  call void @glTexParameteri(i32 noundef %87, i32 noundef 10242, i32 noundef %88)
  %89 = load i32, ptr %11, align 4
  %90 = load i32, ptr %7, align 4
  call void @glTexParameteri(i32 noundef %89, i32 noundef 10243, i32 noundef %90)
  %91 = getelementptr inbounds %"class.nanogui::Texture", ptr %12, i32 0, i32 7
  %92 = load i8, ptr %91, align 2
  %93 = zext i8 %92 to i32
  %94 = and i32 %93, 2
  %95 = icmp ne i32 %94, 0
  br i1 %95, label %96, label %97

96:                                               ; preds = %76
  call void @_ZN7nanogui7Texture6uploadEPKh(ptr noundef nonnull align 8 dereferenceable(40) %12, ptr noundef null)
  br label %97

97:                                               ; preds = %96, %76
  br label %140

98:                                               ; preds = %63
  %99 = getelementptr inbounds %"class.nanogui::Texture", ptr %12, i32 0, i32 7
  %100 = load i8, ptr %99, align 2
  %101 = zext i8 %100 to i32
  %102 = and i32 %101, 2
  %103 = icmp ne i32 %102, 0
  br i1 %103, label %104, label %132

104:                                              ; preds = %98
  %105 = getelementptr inbounds %"class.nanogui::Texture", ptr %12, i32 0, i32 11
  call void @glGenRenderbuffers(i32 noundef 1, ptr noundef %105)
  %106 = getelementptr inbounds %"class.nanogui::Texture", ptr %12, i32 0, i32 11
  %107 = load i32, ptr %106, align 4
  call void @glBindRenderbuffer(i32 noundef 36161, i32 noundef %107)
  %108 = getelementptr inbounds %"class.nanogui::Texture", ptr %12, i32 0, i32 6
  %109 = load i8, ptr %108, align 1
  %110 = zext i8 %109 to i32
  %111 = icmp eq i32 %110, 1
  br i1 %111, label %112, label %120

112:                                              ; preds = %104
  %113 = load i32, ptr %10, align 4
  %114 = getelementptr inbounds %"class.nanogui::Texture", ptr %12, i32 0, i32 8
  %115 = call noundef nonnull align 4 dereferenceable(4) ptr @_ZN7nanogui5ArrayIiLm2EE1xILm2ETnNSt9enable_ifIXgeT_Li1EEiE4typeELi0EEERiv(ptr noundef nonnull align 4 dereferenceable(8) %114)
  %116 = load i32, ptr %115, align 4
  %117 = getelementptr inbounds %"class.nanogui::Texture", ptr %12, i32 0, i32 8
  %118 = call noundef nonnull align 4 dereferenceable(4) ptr @_ZN7nanogui5ArrayIiLm2EE1yILm2ETnNSt9enable_ifIXgeT_Li2EEiE4typeELi0EEERiv(ptr noundef nonnull align 4 dereferenceable(8) %117)
  %119 = load i32, ptr %118, align 4
  call void @glRenderbufferStorage(i32 noundef 36161, i32 noundef %113, i32 noundef %116, i32 noundef %119)
  br label %131

120:                                              ; preds = %104
  %121 = getelementptr inbounds %"class.nanogui::Texture", ptr %12, i32 0, i32 6
  %122 = load i8, ptr %121, align 1
  %123 = zext i8 %122 to i32
  %124 = load i32, ptr %10, align 4
  %125 = getelementptr inbounds %"class.nanogui::Texture", ptr %12, i32 0, i32 8
  %126 = call noundef nonnull align 4 dereferenceable(4) ptr @_ZN7nanogui5ArrayIiLm2EE1xILm2ETnNSt9enable_ifIXgeT_Li1EEiE4typeELi0EEERiv(ptr noundef nonnull align 4 dereferenceable(8) %125)
  %127 = load i32, ptr %126, align 4
  %128 = getelementptr inbounds %"class.nanogui::Texture", ptr %12, i32 0, i32 8
  %129 = call noundef nonnull align 4 dereferenceable(4) ptr @_ZN7nanogui5ArrayIiLm2EE1yILm2ETnNSt9enable_ifIXgeT_Li2EEiE4typeELi0EEERiv(ptr noundef nonnull align 4 dereferenceable(8) %128)
  %130 = load i32, ptr %129, align 4
  call void @glRenderbufferStorageMultisample(i32 noundef 36161, i32 noundef %123, i32 noundef %124, i32 noundef %127, i32 noundef %130)
  br label %131

131:                                              ; preds = %120, %112
  br label %139

132:                                              ; preds = %98
  %133 = call ptr @__cxa_allocate_exception(i64 16) #8
  invoke void @_ZNSt13runtime_errorC1EPKc(ptr noundef nonnull align 8 dereferenceable(16) %133, ptr noundef @.str.2)
          to label %134 unwind label %135

134:                                              ; preds = %132
  call void @__cxa_throw(ptr %133, ptr @_ZTISt13runtime_error, ptr @_ZNSt13runtime_errorD1Ev) #9
  unreachable

135:                                              ; preds = %132
  %136 = landingpad { ptr, i32 }
          cleanup
  %137 = extractvalue { ptr, i32 } %136, 0
  store ptr %137, ptr %5, align 8
  %138 = extractvalue { ptr, i32 } %136, 1
  store i32 %138, ptr %6, align 4
  call void @__cxa_free_exception(ptr %133) #8
  br label %141

139:                                              ; preds = %131
  br label %140

140:                                              ; preds = %139, %97
  ret void

141:                                              ; preds = %135, %59, %42
  %142 = load ptr, ptr %5, align 8
  %143 = load i32, ptr %6, align 4
  %144 = insertvalue { ptr, i32 } poison, ptr %142, 0
  %145 = insertvalue { ptr, i32 } %144, i32 %143, 1
  resume { ptr, i32 } %145
}