; Function Attrs: mustprogress uwtable
define hidden void @_ZN7nanogui7Texture4initEv(ptr noundef nonnull align 8 dereferenceable(40) %0) local_unnamed_addr #0 align 2 personality ptr @__gxx_personality_v0 {
  %.sroa.0 = alloca i32, align 4
  %.sroa.2 = alloca i32, align 4
  %2 = alloca i32, align 4
  %3 = alloca i32, align 4
  %4 = alloca i32, align 4
  br label %5

5:                                                ; preds = %1, %switch.lookup
  %6 = phi i1 [ true, %1 ], [ false, %switch.lookup ]
  %indvars.iv.sroa.phi = phi ptr [ %.sroa.0, %1 ], [ %.sroa.2, %switch.lookup ]
  %.in.v = select i1 %6, i64 14, i64 15
  %.in = getelementptr inbounds i8, ptr %0, i64 %.in.v
  %7 = load i8, ptr %.in, align 1
  %8 = icmp ult i8 %7, 3
  br i1 %8, label %switch.lookup, label %9

9:                                                ; preds = %5
  %10 = tail call ptr @__cxa_allocate_exception(i64 16) #8
  invoke void @_ZNSt13runtime_errorC1EPKc(ptr noundef nonnull align 8 dereferenceable(16) %10, ptr noundef nonnull @.str)
          to label %11 unwind label %12

11:                                               ; preds = %9
  tail call void @__cxa_throw(ptr nonnull %10, ptr nonnull @_ZTISt13runtime_error, ptr nonnull @_ZNSt13runtime_errorD1Ev) #9
  unreachable

12:                                               ; preds = %9
  %13 = landingpad { ptr, i32 }
          cleanup
  br label %67

switch.lookup:                                    ; preds = %5
  %14 = zext nneg i8 %7 to i64
  %switch.gep = getelementptr inbounds [3 x i32], ptr @switch.table._ZN7nanogui7Texture4initEv, i64 0, i64 %14
  %switch.load = load i32, ptr %switch.gep, align 4
  store i32 %switch.load, ptr %indvars.iv.sroa.phi, align 4
  br i1 %6, label %5, label %15, !llvm.loop !5

15:                                               ; preds = %switch.lookup
  %16 = getelementptr inbounds i8, ptr %0, i64 16
  %17 = load i8, ptr %16, align 8
  %18 = icmp ult i8 %17, 3
  br i1 %18, label %switch.lookup26, label %19

19:                                               ; preds = %15
  %20 = tail call ptr @__cxa_allocate_exception(i64 16) #8
  invoke void @_ZNSt13runtime_errorC1EPKc(ptr noundef nonnull align 8 dereferenceable(16) %20, ptr noundef nonnull @.str.1)
          to label %21 unwind label %22

21:                                               ; preds = %19
  tail call void @__cxa_throw(ptr nonnull %20, ptr nonnull @_ZTISt13runtime_error, ptr nonnull @_ZNSt13runtime_errorD1Ev) #9
  unreachable

22:                                               ; preds = %19
  %23 = landingpad { ptr, i32 }
          cleanup
  br label %67

switch.lookup26:                                  ; preds = %15
  %24 = zext nneg i8 %17 to i64
  %switch.gep27 = getelementptr inbounds [3 x i32], ptr @switch.table._ZN7nanogui7Texture4initEv.1, i64 0, i64 %24
  %switch.load28 = load i32, ptr %switch.gep27, align 4
  %25 = getelementptr inbounds i8, ptr %0, i64 12
  %26 = getelementptr inbounds i8, ptr %0, i64 13
  call fastcc void @_ZN7nanoguiL21gl_map_texture_formatERNS_7Texture11PixelFormatERNS0_15ComponentFormatERjS5_S5_(ptr noundef nonnull align 1 dereferenceable(1) %25, ptr noundef nonnull align 1 dereferenceable(1) %26, ptr noundef nonnull align 4 dereferenceable(4) %2, ptr noundef nonnull align 4 dereferenceable(4) %3, ptr noundef nonnull align 4 dereferenceable(4) %4)
  %27 = getelementptr inbounds i8, ptr %0, i64 17
  %28 = getelementptr inbounds i8, ptr %0, i64 18
  %29 = load i8, ptr %28, align 2
  %30 = zext i8 %29 to i32
  %31 = and i32 %30, 1
  %.not = icmp eq i32 %31, 0
  br i1 %.not, label %41, label %32

32:                                               ; preds = %switch.lookup26
  %33 = load i8, ptr %27, align 1
  %34 = icmp ugt i8 %33, 1
  %35 = select i1 %34, i32 37120, i32 3553
  %36 = getelementptr inbounds i8, ptr %0, i64 32
  tail call void @glGenTextures(i32 noundef 1, ptr noundef nonnull %36)
  %37 = load i32, ptr %36, align 8
  tail call void @glBindTexture(i32 noundef %35, i32 noundef %37)
  %.sroa.0.0..sroa.0.0. = load i32, ptr %.sroa.0, align 4
  tail call void @glTexParameteri(i32 noundef %35, i32 noundef 10241, i32 noundef %.sroa.0.0..sroa.0.0.)
  %.sroa.2.0..sroa.2.4. = load i32, ptr %.sroa.2, align 4
  tail call void @glTexParameteri(i32 noundef %35, i32 noundef 10240, i32 noundef %.sroa.2.0..sroa.2.4.)
  tail call void @glTexParameteri(i32 noundef %35, i32 noundef 10242, i32 noundef %switch.load28)
  tail call void @glTexParameteri(i32 noundef %35, i32 noundef 10243, i32 noundef %switch.load28)
  %38 = load i8, ptr %28, align 2
  %39 = and i8 %38, 2
  %.not20 = icmp eq i8 %39, 0
  br i1 %.not20, label %66, label %40

40:                                               ; preds = %32
  tail call void @_ZN7nanogui7Texture6uploadEPKh(ptr noundef nonnull align 8 dereferenceable(40) %0, ptr noundef null)
  br label %66

41:                                               ; preds = %switch.lookup26
  %42 = and i32 %30, 2
  %.not19 = icmp eq i32 %42, 0
  br i1 %.not19, label %61, label %43

43:                                               ; preds = %41
  %44 = getelementptr inbounds i8, ptr %0, i64 36
  tail call void @glGenRenderbuffers(i32 noundef 1, ptr noundef nonnull %44)
  %45 = load i32, ptr %44, align 4
  tail call void @glBindRenderbuffer(i32 noundef 36161, i32 noundef %45)
  %46 = load i8, ptr %27, align 1
  %47 = icmp eq i8 %46, 1
  br i1 %47, label %48, label %54

48:                                               ; preds = %43
  %49 = load i32, ptr %4, align 4
  %50 = getelementptr inbounds i8, ptr %0, i64 20
  %51 = load i32, ptr %50, align 4
  %52 = getelementptr inbounds i8, ptr %0, i64 24
  %53 = load i32, ptr %52, align 8
  tail call void @glRenderbufferStorage(i32 noundef 36161, i32 noundef %49, i32 noundef %51, i32 noundef %53)
  br label %66

54:                                               ; preds = %43
  %55 = zext i8 %46 to i32
  %56 = load i32, ptr %4, align 4
  %57 = getelementptr inbounds i8, ptr %0, i64 20
  %58 = load i32, ptr %57, align 4
  %59 = getelementptr inbounds i8, ptr %0, i64 24
  %60 = load i32, ptr %59, align 8
  tail call void @glRenderbufferStorageMultisample(i32 noundef 36161, i32 noundef %55, i32 noundef %56, i32 noundef %58, i32 noundef %60)
  br label %66

61:                                               ; preds = %41
  %62 = tail call ptr @__cxa_allocate_exception(i64 16) #8
  invoke void @_ZNSt13runtime_errorC1EPKc(ptr noundef nonnull align 8 dereferenceable(16) %62, ptr noundef nonnull @.str.2)
          to label %63 unwind label %64

63:                                               ; preds = %61
  tail call void @__cxa_throw(ptr nonnull %62, ptr nonnull @_ZTISt13runtime_error, ptr nonnull @_ZNSt13runtime_errorD1Ev) #9
  unreachable

64:                                               ; preds = %61
  %65 = landingpad { ptr, i32 }
          cleanup
  br label %67

66:                                               ; preds = %54, %48, %32, %40
  ret void

67:                                               ; preds = %64, %22, %12
  %.sink25 = phi ptr [ %62, %64 ], [ %20, %22 ], [ %10, %12 ]
  %.pn = phi { ptr, i32 } [ %65, %64 ], [ %23, %22 ], [ %13, %12 ]
  tail call void @__cxa_free_exception(ptr %.sink25) #8
  resume { ptr, i32 } %.pn
}